target datalayout = "e-m:e-p270:32:32-p271:32:32-p272:64:64-i64:64-i128:128-f80:128-n8:16:32:64-S128"
target triple = "x86_64-pc-linux-gnu"

%struct.regex_matcher = type { %struct.cli_hashtable, i64, ptr, i64, i64, ptr, %struct.cli_matcher, %struct.cli_matcher, %struct.cli_hashset, %struct.cli_matcher, %struct.filter, ptr, i8 }
%struct.cli_hashtable = type { ptr, i64, i64, i64 }
%struct.cli_hashset = type { ptr, ptr, ptr, i32, i32, i32, i32 }
%struct.cli_matcher = type { i32, ptr, ptr, ptr, ptr, i32, i32, i32, i32, i32, %struct.cli_hash_patt, %struct.cli_hash_wild, i32, i32, i32, i32, i32, ptr, ptr, ptr, ptr, ptr, ptr, i32, i32, i8, i8, ptr, i16, i8, i32, ptr, i32, i32, i32, ptr, ptr, i32, ptr, i64, i64, ptr }
%struct.cli_hash_patt = type { [3 x %struct.cli_htu32] }
%struct.cli_htu32 = type { ptr, i64, i64, i64 }
%struct.cli_hash_wild = type { [3 x %struct.cli_sz_hash] }
%struct.cli_sz_hash = type { ptr, ptr, i32 }
%struct.filter = type { [65536 x i8], [65536 x i8], i64 }

@.str.8 = private unnamed_addr constant [46 x i8] c"init_regex_list: matcher must be initialized\0A\00", align 1
@.str.9 = private unnamed_addr constant [55 x i8] c"init_regex_list: matcher->mempool must be initialized\0A\00", align 1

; Function Attrs: nounwind uwtable
define i32 @init_regex_list(ptr noundef %0, i8 noundef zeroext %1) #0 {
  %3 = alloca ptr, align 8
  %4 = alloca i8, align 1
  %5 = alloca ptr, align 8
  %6 = alloca i32, align 4
  store ptr %0, ptr %3, align 8, !tbaa !3
  store i8 %1, ptr %4, align 1, !tbaa !18
  call void @llvm.lifetime.start.p0(i64 8, ptr %5) #11
  store ptr null, ptr %5, align 8, !tbaa !56
  call void @llvm.lifetime.start.p0(i64 4, ptr %6) #11
  store i32 0, ptr %6, align 4, !tbaa !12
  %7 = load ptr, ptr %3, align 8, !tbaa !3
  %8 = icmp eq ptr null, %7
  br i1 %8, label %9, label %10

9:                                                ; preds = %2
  call void (ptr, ...) @cli_errmsg(ptr noundef @.str.8)
  store i32 2, ptr %6, align 4, !tbaa !12
  br label %73

10:                                               ; preds = %2
  %11 = load ptr, ptr %3, align 8, !tbaa !3
  %12 = getelementptr inbounds nuw %struct.regex_matcher, ptr %11, i32 0, i32 11
  %13 = load ptr, ptr %12, align 8, !tbaa !57
  store ptr %13, ptr %5, align 8, !tbaa !56
  %14 = load ptr, ptr %5, align 8, !tbaa !56
  %15 = icmp eq ptr null, %14
  br i1 %15, label %16, label %17

16:                                               ; preds = %10
  call void (ptr, ...) @cli_errmsg(ptr noundef @.str.9)
  store i32 2, ptr %6, align 4, !tbaa !12
  br label %73

17:                                               ; preds = %10
  %18 = load ptr, ptr %3, align 8, !tbaa !3
  call void @llvm.memset.p0.i64(ptr align 8 %18, i8 0, i64 132456, i1 false)
  %19 = load ptr, ptr %3, align 8, !tbaa !3
  %20 = getelementptr inbounds nuw %struct.regex_matcher, ptr %19, i32 0, i32 12
  %21 = load i8, ptr %20, align 8
  %22 = and i8 %21, -4
  %23 = or i8 %22, 1
  store i8 %23, ptr %20, align 8
  %24 = load ptr, ptr %3, align 8, !tbaa !3
  %25 = getelementptr inbounds nuw %struct.regex_matcher, ptr %24, i32 0, i32 12
  %26 = load i8, ptr %25, align 8
  %27 = and i8 %26, -49
  %28 = or i8 %27, 0
  store i8 %28, ptr %25, align 8
  %29 = load ptr, ptr %3, align 8, !tbaa !3
  %30 = getelementptr inbounds nuw %struct.regex_matcher, ptr %29, i32 0, i32 12
  %31 = load i8, ptr %30, align 8
  %32 = and i8 %31, -13
  %33 = or i8 %32, 0
  store i8 %33, ptr %30, align 8
  %34 = load ptr, ptr %3, align 8, !tbaa !3
  %35 = getelementptr inbounds nuw %struct.regex_matcher, ptr %34, i32 0, i32 0
  %36 = call i32 @cli_hashtab_init(ptr noundef %35, i64 noundef 512)
  %37 = load ptr, ptr %5, align 8, !tbaa !56
  %38 = load ptr, ptr %3, align 8, !tbaa !3
  %39 = getelementptr inbounds nuw %struct.regex_matcher, ptr %38, i32 0, i32 11
  store ptr %37, ptr %39, align 8, !tbaa !57
  %40 = load ptr, ptr %5, align 8, !tbaa !56
  %41 = load ptr, ptr %3, align 8, !tbaa !3
  %42 = getelementptr inbounds nuw %struct.regex_matcher, ptr %41, i32 0, i32 6
  %43 = getelementptr inbounds nuw %struct.cli_matcher, ptr %42, i32 0, i32 41
  store ptr %40, ptr %43, align 8, !tbaa !58
  %44 = load ptr, ptr %3, align 8, !tbaa !3
  %45 = getelementptr inbounds nuw %struct.regex_matcher, ptr %44, i32 0, i32 6
  %46 = load i8, ptr %4, align 1, !tbaa !18
  %47 = call i32 @cli_ac_init(ptr noundef %45, i8 noundef zeroext 2, i8 noundef zeroext 32, i8 noundef zeroext %46)
  store i32 %47, ptr %6, align 4, !tbaa !12
  %48 = icmp ne i32 %47, 0
  br i1 %48, label %49, label %50

49:                                               ; preds = %17
  br label %73

50:                                               ; preds = %17
  %51 = load ptr, ptr %5, align 8, !tbaa !56
  %52 = load ptr, ptr %3, align 8, !tbaa !3
  %53 = getelementptr inbounds nuw %struct.regex_matcher, ptr %52, i32 0, i32 7
  %54 = getelementptr inbounds nuw %struct.cli_matcher, ptr %53, i32 0, i32 41
  store ptr %51, ptr %54, align 8, !tbaa !59
  %55 = load ptr, ptr %5, align 8, !tbaa !56
  %56 = load ptr, ptr %3, align 8, !tbaa !3
  %57 = getelementptr inbounds nuw %struct.regex_matcher, ptr %56, i32 0, i32 9
  %58 = getelementptr inbounds nuw %struct.cli_matcher, ptr %57, i32 0, i32 41
  store ptr %55, ptr %58, align 8, !tbaa !60
  %59 = load ptr, ptr %3, align 8, !tbaa !3
  %60 = getelementptr inbounds nuw %struct.regex_matcher, ptr %59, i32 0, i32 7
  %61 = call i32 @cli_bm_init(ptr noundef %60)
  store i32 %61, ptr %6, align 4, !tbaa !12
  %62 = icmp ne i32 %61, 0
  br i1 %62, label %63, label %64

63:                                               ; preds = %50
  br label %73

64:                                               ; preds = %50
  %65 = load ptr, ptr %3, align 8, !tbaa !3
  %66 = getelementptr inbounds nuw %struct.regex_matcher, ptr %65, i32 0, i32 9
  %67 = call i32 @cli_bm_init(ptr noundef %66)
  store i32 %67, ptr %6, align 4, !tbaa !12
  %68 = icmp ne i32 %67, 0
  br i1 %68, label %69, label %70

69:                                               ; preds = %64
  br label %73

70:                                               ; preds = %64
  %71 = load ptr, ptr %3, align 8, !tbaa !3
  %72 = getelementptr inbounds nuw %struct.regex_matcher, ptr %71, i32 0, i32 10
  call void @filter_init(ptr noundef %72)
  br label %73

73:                                               ; preds = %70, %69, %63, %49, %16, %9
  %74 = load i32, ptr %6, align 4, !tbaa !12
  call void @llvm.lifetime.end.p0(i64 4, ptr %6) #11
  call void @llvm.lifetime.end.p0(i64 8, ptr %5) #11
  ret i32 %74
}