; Function Attrs: nounwind uwtable
define i32 @init_regex_list(ptr noundef %0, i8 noundef zeroext %1) local_unnamed_addr #0 {
  %3 = icmp eq ptr %0, null
  br i1 %3, label %4, label %5

4:                                                ; preds = %2
  tail call void (ptr, ...) @cli_errmsg(ptr noundef nonnull @.str.8) #14
  br label %26

5:                                                ; preds = %2
  %6 = getelementptr inbounds nuw i8, ptr %0, i64 132440
  %7 = load ptr, ptr %6, align 8, !tbaa !45
  %8 = icmp eq ptr %7, null
  br i1 %8, label %9, label %10

9:                                                ; preds = %5
  tail call void (ptr, ...) @cli_errmsg(ptr noundef nonnull @.str.9) #14
  br label %26

10:                                               ; preds = %5
  tail call void @llvm.memset.p0.i64(ptr noundef nonnull align 8 dereferenceable(132456) %0, i8 0, i64 132456, i1 false)
  %11 = getelementptr inbounds nuw i8, ptr %0, i64 132448
  store i8 1, ptr %11, align 8
  %12 = tail call i32 @cli_hashtab_init(ptr noundef nonnull %0, i64 noundef 512) #14
  store ptr %7, ptr %6, align 8, !tbaa !45
  %13 = getelementptr inbounds nuw i8, ptr %0, i64 72
  %14 = getelementptr inbounds nuw i8, ptr %0, i64 480
  store ptr %7, ptr %14, align 8, !tbaa !46
  %15 = tail call i32 @cli_ac_init(ptr noundef nonnull %13, i8 noundef zeroext 2, i8 noundef zeroext 32, i8 noundef zeroext %1) #14
  %.not = icmp eq i32 %15, 0
  br i1 %.not, label %16, label %26

16:                                               ; preds = %10
  %17 = getelementptr inbounds nuw i8, ptr %0, i64 488
  %18 = getelementptr inbounds nuw i8, ptr %0, i64 896
  store ptr %7, ptr %18, align 8, !tbaa !47
  %19 = getelementptr inbounds nuw i8, ptr %0, i64 1352
  store ptr %7, ptr %19, align 8, !tbaa !48
  %20 = tail call i32 @cli_bm_init(ptr noundef nonnull %17) #14
  %.not26 = icmp eq i32 %20, 0
  br i1 %.not26, label %21, label %26

21:                                               ; preds = %16
  %22 = getelementptr inbounds nuw i8, ptr %0, i64 944
  %23 = tail call i32 @cli_bm_init(ptr noundef nonnull %22) #14
  %.not27 = icmp eq i32 %23, 0
  br i1 %.not27, label %24, label %26

24:                                               ; preds = %21
  %25 = getelementptr inbounds nuw i8, ptr %0, i64 1360
  tail call void @filter_init(ptr noundef nonnull %25) #14
  br label %26

26:                                               ; preds = %21, %16, %10, %24, %9, %4
  %.0 = phi i32 [ 2, %4 ], [ 2, %9 ], [ %15, %10 ], [ %20, %16 ], [ %23, %21 ], [ 0, %24 ]
  ret i32 %.0
}